target datalayout = "e-m:e-p270:32:32-p271:32:32-p272:64:64-i64:64-i128:128-f80:128-n8:16:32:64-S128"
target triple = "x86_64-pc-linux-gnu"

@.str.10 = private unnamed_addr constant [6 x i8] c"certs\00", align 1

; Function Attrs: nounwind uwtable
define i32 @TS_CONF_set_certs(ptr noundef %0, ptr noundef %1, ptr noundef %2, ptr noundef %3) #0 {
  %5 = alloca ptr, align 8
  %6 = alloca ptr, align 8
  %7 = alloca ptr, align 8
  %8 = alloca ptr, align 8
  %9 = alloca i32, align 4
  %10 = alloca ptr, align 8
  store ptr %0, ptr %5, align 8, !tbaa !31
  store ptr %1, ptr %6, align 8, !tbaa !3
  store ptr %2, ptr %7, align 8, !tbaa !3
  store ptr %3, ptr %8, align 8, !tbaa !33
  call void @llvm.lifetime.start.p0(i64 4, ptr %9) #7
  store i32 0, ptr %9, align 4, !tbaa !16
  call void @llvm.lifetime.start.p0(i64 8, ptr %10) #7
  store ptr null, ptr %10, align 8, !tbaa !12
  %11 = load ptr, ptr %7, align 8, !tbaa !3
  %12 = icmp eq ptr %11, null
  br i1 %12, label %13, label %20

13:                                               ; preds = %4
  %14 = load ptr, ptr %5, align 8, !tbaa !31
  %15 = load ptr, ptr %6, align 8, !tbaa !3
  %16 = call ptr @NCONF_get_string(ptr noundef %14, ptr noundef %15, ptr noundef @.str.10)
  store ptr %16, ptr %7, align 8, !tbaa !3
  %17 = icmp eq ptr %16, null
  br i1 %17, label %18, label %19

18:                                               ; preds = %13
  br label %32

19:                                               ; preds = %13
  br label %20

20:                                               ; preds = %19, %4
  %21 = load ptr, ptr %7, align 8, !tbaa !3
  %22 = call ptr @TS_CONF_load_certs(ptr noundef %21)
  store ptr %22, ptr %10, align 8, !tbaa !12
  %23 = icmp eq ptr %22, null
  br i1 %23, label %24, label %25

24:                                               ; preds = %20
  br label %33

25:                                               ; preds = %20
  %26 = load ptr, ptr %8, align 8, !tbaa !33
  %27 = load ptr, ptr %10, align 8, !tbaa !12
  %28 = call i32 @TS_RESP_CTX_set_certs(ptr noundef %26, ptr noundef %27)
  %29 = icmp ne i32 %28, 0
  br i1 %29, label %31, label %30

30:                                               ; preds = %25
  br label %33

31:                                               ; preds = %25
  br label %32

32:                                               ; preds = %31, %18
  store i32 1, ptr %9, align 4, !tbaa !16
  br label %33

33:                                               ; preds = %32, %30, %24
  %34 = load ptr, ptr %10, align 8, !tbaa !12
  call void @OSSL_STACK_OF_X509_free(ptr noundef %34)
  %35 = load i32, ptr %9, align 4, !tbaa !16
  call void @llvm.lifetime.end.p0(i64 8, ptr %10) #7
  call void @llvm.lifetime.end.p0(i64 4, ptr %9) #7
  ret i32 %35
}