; Function Attrs: nounwind uwtable
define range(i32 0, 2) i32 @TS_CONF_set_certs(ptr noundef %0, ptr noundef %1, ptr noundef %2, ptr noundef %3) local_unnamed_addr #0 {
  %5 = icmp eq ptr %2, null
  br i1 %5, label %6, label %9

6:                                                ; preds = %4
  %7 = tail call ptr @NCONF_get_string(ptr noundef %0, ptr noundef %1, ptr noundef nonnull @.str.10) #4
  %8 = icmp eq ptr %7, null
  br i1 %8, label %14, label %9

9:                                                ; preds = %6, %4
  %.08 = phi ptr [ %7, %6 ], [ %2, %4 ]
  %10 = tail call ptr @TS_CONF_load_certs(ptr noundef nonnull %.08)
  %11 = icmp eq ptr %10, null
  br i1 %11, label %14, label %12

12:                                               ; preds = %9
  %13 = tail call i32 @TS_RESP_CTX_set_certs(ptr noundef %3, ptr noundef nonnull %10) #4
  %.not = icmp ne i32 %13, 0
  %spec.select = zext i1 %.not to i32
  br label %14

14:                                               ; preds = %12, %6, %9
  %.07 = phi i32 [ 0, %9 ], [ 1, %6 ], [ %spec.select, %12 ]
  %.1 = phi ptr [ null, %9 ], [ null, %6 ], [ %10, %12 ]
  tail call void @OSSL_STACK_OF_X509_free(ptr noundef %.1) #4
  ret i32 %.07
}